; Function Attrs: mustprogress uwtable
define dso_local void @_ZN4Luau7CodeGen3X6418AssemblyBuilderX643popENS1_10OperandX64E(ptr noundef nonnull align 8 dereferenceable(252) %0, i64 %1) local_unnamed_addr #0 align 2 {
  %3 = getelementptr inbounds nuw i8, ptr %0, i64 80
  %4 = load i8, ptr %3, align 8, !tbaa !14, !range !61, !noundef !62
  %5 = trunc nuw i8 %4 to i1
  br i1 %5, label %6, label %7

6:                                                ; preds = %2
  tail call void @_ZN4Luau7CodeGen3X6418AssemblyBuilderX643logEPKcNS1_10OperandX64E(ptr noundef nonnull align 8 dereferenceable(252) %0, ptr noundef nonnull @.str.28, i64 %1)
  br label %7

7:                                                ; preds = %6, %2
  %.sroa.2.0.extract.shift = lshr i64 %1, 16
  %.sroa.2.0.extract.trunc = trunc i64 %.sroa.2.0.extract.shift to i8
  %8 = and i8 %.sroa.2.0.extract.trunc, 7
  %9 = icmp eq i8 %8, 4
  %10 = icmp eq i8 %8, 1
  %11 = icmp ugt i8 %.sroa.2.0.extract.trunc, 31
  %12 = and i1 %11, %10
  %13 = or i1 %9, %12
  %14 = select i1 %13, i8 8, i8 0
  %15 = lshr i8 %.sroa.2.0.extract.trunc, 6
  %16 = and i8 %15, 1
  %17 = or disjoint i8 %14, %16
  %.not.i = icmp eq i8 %17, 0
  br i1 %.not.i, label %_ZN4Luau7CodeGen3X6418AssemblyBuilderX648placeRexENS1_11RegisterX64E.exit, label %18

18:                                               ; preds = %7
  %19 = or disjoint i8 %17, 64
  %20 = getelementptr inbounds nuw i8, ptr %0, i64 232
  %21 = load ptr, ptr %20, align 8, !tbaa !51
  %22 = getelementptr inbounds nuw i8, ptr %21, i64 1
  store ptr %22, ptr %20, align 8, !tbaa !51
  store i8 %19, ptr %21, align 1, !tbaa !13
  br label %_ZN4Luau7CodeGen3X6418AssemblyBuilderX648placeRexENS1_11RegisterX64E.exit

_ZN4Luau7CodeGen3X6418AssemblyBuilderX648placeRexENS1_11RegisterX64E.exit: ; preds = %7, %18
  %23 = lshr i8 %.sroa.2.0.extract.trunc, 3
  %24 = or i8 %23, 88
  %25 = getelementptr inbounds nuw i8, ptr %0, i64 232
  %26 = load ptr, ptr %25, align 8, !tbaa !51
  %27 = getelementptr inbounds nuw i8, ptr %26, i64 1
  store ptr %27, ptr %25, align 8, !tbaa !51
  store i8 %24, ptr %26, align 1, !tbaa !13
  %28 = getelementptr inbounds nuw i8, ptr %0, i64 248
  %29 = load i32, ptr %28, align 8, !tbaa !63
  %30 = add i32 %29, 1
  store i32 %30, ptr %28, align 8, !tbaa !63
  %31 = getelementptr inbounds nuw i8, ptr %0, i64 240
  %32 = load ptr, ptr %31, align 8, !tbaa !52
  %33 = load ptr, ptr %25, align 8, !tbaa !51
  %34 = ptrtoint ptr %32 to i64
  %35 = ptrtoint ptr %33 to i64
  %36 = sub i64 %34, %35
  %37 = and i64 %36, 4294967280
  %38 = icmp eq i64 %37, 0
  br i1 %38, label %39, label %_ZN4Luau7CodeGen3X6418AssemblyBuilderX646commitEv.exit

39:                                               ; preds = %_ZN4Luau7CodeGen3X6418AssemblyBuilderX648placeRexENS1_11RegisterX64E.exit
  tail call void @_ZN4Luau7CodeGen3X6418AssemblyBuilderX646extendEv(ptr noundef nonnull align 8 dereferenceable(252) %0)
  br label %_ZN4Luau7CodeGen3X6418AssemblyBuilderX646commitEv.exit

_ZN4Luau7CodeGen3X6418AssemblyBuilderX646commitEv.exit: ; preds = %_ZN4Luau7CodeGen3X6418AssemblyBuilderX648placeRexENS1_11RegisterX64E.exit, %39
  ret void
}